target datalayout = "e-m:e-p270:32:32-p271:32:32-p272:64:64-i64:64-i128:128-f80:128-n8:16:32:64-S128"
target triple = "x86_64-pc-linux-gnu"

%struct.asn1_type_st = type { i32, %union.anon }
%union.anon = type { ptr }

@.str = private unnamed_addr constant [34 x i8] c"../openssl/crypto/asn1/evp_asn1.c\00", align 1
@__func__.ASN1_TYPE_get_octetstring = private unnamed_addr constant [26 x i8] c"ASN1_TYPE_get_octetstring\00", align 1

; Function Attrs: nounwind uwtable
define i32 @ASN1_TYPE_get_octetstring(ptr noundef %0, ptr noundef %1, i32 noundef %2) #0 {
  %4 = alloca i32, align 4
  %5 = alloca ptr, align 8
  %6 = alloca ptr, align 8
  %7 = alloca i32, align 4
  %8 = alloca i32, align 4
  %9 = alloca i32, align 4
  %10 = alloca ptr, align 8
  %11 = alloca i32, align 4
  store ptr %0, ptr %5, align 8, !tbaa !3
  store ptr %1, ptr %6, align 8, !tbaa !8
  store i32 %2, ptr %7, align 4, !tbaa !10
  call void @llvm.lifetime.start.p0(i64 4, ptr %8) #5
  call void @llvm.lifetime.start.p0(i64 4, ptr %9) #5
  call void @llvm.lifetime.start.p0(i64 8, ptr %10) #5
  %12 = load ptr, ptr %5, align 8, !tbaa !3
  %13 = getelementptr inbounds nuw %struct.asn1_type_st, ptr %12, i32 0, i32 0
  %14 = load i32, ptr %13, align 8, !tbaa !14
  %15 = icmp ne i32 %14, 4
  br i1 %15, label %21, label %16

16:                                               ; preds = %3
  %17 = load ptr, ptr %5, align 8, !tbaa !3
  %18 = getelementptr inbounds nuw %struct.asn1_type_st, ptr %17, i32 0, i32 1
  %19 = load ptr, ptr %18, align 8, !tbaa !16
  %20 = icmp eq ptr %19, null
  br i1 %20, label %21, label %22

21:                                               ; preds = %16, %3
  call void @ERR_new()
  call void @ERR_set_debug(ptr noundef @.str, i32 noundef 40, ptr noundef @__func__.ASN1_TYPE_get_octetstring)
  call void (i32, i32, ptr, ...) @ERR_set_error(i32 noundef 13, i32 noundef 109, ptr noundef null)
  store i32 -1, ptr %4, align 4
  store i32 1, ptr %11, align 4
  br label %51

22:                                               ; preds = %16
  %23 = load ptr, ptr %5, align 8, !tbaa !3
  %24 = getelementptr inbounds nuw %struct.asn1_type_st, ptr %23, i32 0, i32 1
  %25 = load ptr, ptr %24, align 8, !tbaa !16
  %26 = call ptr @ASN1_STRING_get0_data(ptr noundef %25)
  store ptr %26, ptr %10, align 8, !tbaa !8
  %27 = load ptr, ptr %5, align 8, !tbaa !3
  %28 = getelementptr inbounds nuw %struct.asn1_type_st, ptr %27, i32 0, i32 1
  %29 = load ptr, ptr %28, align 8, !tbaa !16
  %30 = call i32 @ASN1_STRING_length(ptr noundef %29)
  store i32 %30, ptr %8, align 4, !tbaa !10
  %31 = load i32, ptr %8, align 4, !tbaa !10
  %32 = load i32, ptr %7, align 4, !tbaa !10
  %33 = icmp slt i32 %31, %32
  br i1 %33, label %34, label %36

34:                                               ; preds = %22
  %35 = load i32, ptr %8, align 4, !tbaa !10
  store i32 %35, ptr %9, align 4, !tbaa !10
  br label %38

36:                                               ; preds = %22
  %37 = load i32, ptr %7, align 4, !tbaa !10
  store i32 %37, ptr %9, align 4, !tbaa !10
  br label %38

38:                                               ; preds = %36, %34
  %39 = load i32, ptr %9, align 4, !tbaa !10
  %40 = icmp sgt i32 %39, 0
  br i1 %40, label %41, label %49

41:                                               ; preds = %38
  %42 = load ptr, ptr %6, align 8, !tbaa !8
  %43 = icmp ne ptr %42, null
  br i1 %43, label %44, label %49

44:                                               ; preds = %41
  %45 = load ptr, ptr %6, align 8, !tbaa !8
  %46 = load ptr, ptr %10, align 8, !tbaa !8
  %47 = load i32, ptr %9, align 4, !tbaa !10
  %48 = sext i32 %47 to i64
  call void @llvm.memcpy.p0.p0.i64(ptr align 1 %45, ptr align 1 %46, i64 %48, i1 false)
  br label %49

49:                                               ; preds = %44, %41, %38
  %50 = load i32, ptr %8, align 4, !tbaa !10
  store i32 %50, ptr %4, align 4
  store i32 1, ptr %11, align 4
  br label %51

51:                                               ; preds = %49, %21
  call void @llvm.lifetime.end.p0(i64 8, ptr %10) #5
  call void @llvm.lifetime.end.p0(i64 4, ptr %9) #5
  call void @llvm.lifetime.end.p0(i64 4, ptr %8) #5
  %52 = load i32, ptr %4, align 4
  ret i32 %52
}