; Function Attrs: nounwind uwtable
define i32 @ASN1_TYPE_get_octetstring(ptr noundef readonly captures(none) %0, ptr noundef writeonly captures(address_is_null) %1, i32 noundef %2) local_unnamed_addr #0 {
  %4 = load i32, ptr %0, align 8, !tbaa !3
  %.not = icmp eq i32 %4, 4
  br i1 %.not, label %5, label %9

5:                                                ; preds = %3
  %6 = getelementptr inbounds nuw i8, ptr %0, i64 8
  %7 = load ptr, ptr %6, align 8, !tbaa !8
  %8 = icmp eq ptr %7, null
  br i1 %8, label %9, label %10

9:                                                ; preds = %5, %3
  tail call void @ERR_new() #5
  tail call void @ERR_set_debug(ptr noundef nonnull @.str, i32 noundef 40, ptr noundef nonnull @__func__.ASN1_TYPE_get_octetstring) #5
  tail call void (i32, i32, ptr, ...) @ERR_set_error(i32 noundef 13, i32 noundef 109, ptr noundef null) #5
  br label %18

10:                                               ; preds = %5
  %11 = tail call ptr @ASN1_STRING_get0_data(ptr noundef nonnull %7) #5
  %12 = load ptr, ptr %6, align 8, !tbaa !8
  %13 = tail call i32 @ASN1_STRING_length(ptr noundef %12) #5
  %. = tail call i32 @llvm.smin.i32(i32 %13, i32 %2)
  %14 = icmp sgt i32 %., 0
  %15 = icmp ne ptr %1, null
  %or.cond = and i1 %15, %14
  br i1 %or.cond, label %16, label %18

16:                                               ; preds = %10
  %17 = zext nneg i32 %. to i64
  tail call void @llvm.memcpy.p0.p0.i64(ptr nonnull align 1 %1, ptr align 1 %11, i64 %17, i1 false)
  br label %18

18:                                               ; preds = %10, %16, %9
  %.0 = phi i32 [ -1, %9 ], [ %13, %16 ], [ %13, %10 ]
  ret i32 %.0
}